; Function Attrs: null_pointer_is_valid sspstrong uwtable
define internal noundef i32 @decode_dataitem_v6subnet(ptr noundef %0, ptr noundef readonly captures(none) %1, ptr noundef %2, ptr readnone captures(none) %3) #0 {
  %5 = alloca i32, align 4
  %6 = tail call ptr @proto_tree_get_parent(ptr noundef %2)
  call void @llvm.lifetime.start.p0(i64 4, ptr nonnull %5) #5
  %7 = load i32, ptr @hf_dlep_dataitem_v6subnet, align 4
  %8 = tail call ptr @proto_tree_add_item(ptr noundef %2, i32 noundef %7, ptr noundef %0, i32 noundef 0, i32 noundef 18, i32 noundef 0)
  %.not.i = icmp eq ptr %8, null
  br i1 %.not.i, label %proto_item_set_hidden.exit, label %9

9:                                                ; preds = %4
  %10 = getelementptr inbounds nuw i8, ptr %8, i64 40
  %11 = load ptr, ptr %10, align 8
  %.not5.i = icmp eq ptr %11, null
  br i1 %.not5.i, label %proto_item_set_hidden.exit, label %12

12:                                               ; preds = %9
  %13 = getelementptr inbounds nuw i8, ptr %11, i64 28
  %14 = load i32, ptr %13, align 4
  %15 = or i32 %14, 1
  store i32 %15, ptr %13, align 4
  br label %proto_item_set_hidden.exit

proto_item_set_hidden.exit:                       ; preds = %4, %9, %12
  %16 = load i32, ptr @hf_dlep_dataitem_v6subnet_flags, align 4
  %17 = tail call ptr @proto_tree_add_item(ptr noundef %2, i32 noundef %16, ptr noundef %0, i32 noundef 0, i32 noundef 1, i32 noundef 0)
  %18 = load i32, ptr @ett_dlep_flags, align 4
  %19 = tail call ptr @proto_item_add_subtree(ptr noundef %17, i32 noundef %18)
  %20 = load i32, ptr @hf_dlep_dataitem_v6subnet_flags_adddrop, align 4
  %21 = tail call ptr @proto_tree_add_item(ptr noundef %19, i32 noundef %20, ptr noundef %0, i32 noundef 0, i32 noundef 1, i32 noundef 0)
  %22 = tail call zeroext i8 @tvb_get_uint8(ptr noundef %0, i32 noundef 0)
  %23 = and i8 %22, 1
  %24 = icmp ne i8 %23, 0
  %25 = tail call ptr @tfs_get_string(i1 noundef zeroext %24, ptr noundef nonnull @tfs_add_drop)
  tail call void (ptr, ptr, ...) @proto_item_append_text(ptr noundef %6, ptr noundef nonnull @.str.213, ptr noundef %25)
  %26 = load i32, ptr @hf_dlep_dataitem_v6subnet_subnet, align 4
  %27 = tail call ptr @proto_tree_add_item(ptr noundef %2, i32 noundef %26, ptr noundef %0, i32 noundef 1, i32 noundef 16, i32 noundef 0)
  %28 = getelementptr inbounds nuw i8, ptr %1, i64 408
  %29 = load ptr, ptr %28, align 8
  %30 = tail call ptr @tvb_address_to_str(ptr noundef %29, ptr noundef %0, i32 noundef 3, i32 noundef 1)
  tail call void (ptr, ptr, ...) @proto_item_append_text(ptr noundef %6, ptr noundef nonnull @.str.214, ptr noundef %30)
  %31 = load i32, ptr @hf_dlep_dataitem_v6subnet_prefixlen, align 4
  %32 = call ptr @proto_tree_add_item_ret_uint(ptr noundef %2, i32 noundef %31, ptr noundef %0, i32 noundef 17, i32 noundef 1, i32 noundef 0, ptr noundef nonnull %5)
  %33 = load i32, ptr %5, align 4
  call void (ptr, ptr, ...) @proto_item_append_text(ptr noundef %6, ptr noundef nonnull @.str.215, i32 noundef %33)
  call void @llvm.lifetime.end.p0(i64 4, ptr nonnull %5) #5
  ret i32 18
}